; Function Attrs: uwtable
define internal void @__cxx_global_array_dtor(ptr nocapture readnone %0) #6 section ".text.startup" personality ptr @__gxx_personality_v0 {
entry:
  br label %arraydestroy.body

arraydestroy.body:                                ; preds = %_ZN18OpenImageIO_v2_6_08PSDInput14ResourceLoaderD2Ev.exit, %entry
  %arraydestroy.elementPast = phi ptr [ getelementptr inbounds ([11 x %"struct.OpenImageIO_v2_6_0::PSDInput::ResourceLoader"], ptr @_ZN18OpenImageIO_v2_6_08PSDInput16resource_loadersE, i64 1, i64 0), %entry ], [ %arraydestroy.element, %_ZN18OpenImageIO_v2_6_08PSDInput14ResourceLoaderD2Ev.exit ]
  %arraydestroy.element = getelementptr inbounds i8, ptr %arraydestroy.elementPast, i64 -40
  %_M_manager.i.i.i = getelementptr inbounds i8, ptr %arraydestroy.elementPast, i64 -16
  %1 = load ptr, ptr %_M_manager.i.i.i, align 8
  %tobool.not.i.i.i = icmp eq ptr %1, null
  br i1 %tobool.not.i.i.i, label %_ZN18OpenImageIO_v2_6_08PSDInput14ResourceLoaderD2Ev.exit, label %if.then.i.i.i

if.then.i.i.i:                                    ; preds = %arraydestroy.body
  %load.i = getelementptr inbounds i8, ptr %arraydestroy.elementPast, i64 -32
  %call.i.i.i = invoke noundef zeroext i1 %1(ptr noundef nonnull align 8 dereferenceable(16) %load.i, ptr noundef nonnull align 8 dereferenceable(16) %load.i, i32 noundef 3)
          to label %_ZN18OpenImageIO_v2_6_08PSDInput14ResourceLoaderD2Ev.exit unwind label %terminate.lpad.i.i.i

terminate.lpad.i.i.i:                             ; preds = %if.then.i.i.i
  %2 = landingpad { ptr, i32 }
          catch ptr null
  %3 = extractvalue { ptr, i32 } %2, 0
  tail call void @__clang_call_terminate(ptr %3) #31
  unreachable

_ZN18OpenImageIO_v2_6_08PSDInput14ResourceLoaderD2Ev.exit: ; preds = %arraydestroy.body, %if.then.i.i.i
  %arraydestroy.done = icmp eq ptr %arraydestroy.element, @_ZN18OpenImageIO_v2_6_08PSDInput16resource_loadersE
  br i1 %arraydestroy.done, label %arraydestroy.done1, label %arraydestroy.body

arraydestroy.done1:                               ; preds = %_ZN18OpenImageIO_v2_6_08PSDInput14ResourceLoaderD2Ev.exit
  ret void
}